; ModuleID = 'source-C-CXX/4/207.c'
source_filename = "source-C-CXX/4/207.c"
target datalayout = "e-m:e-p270:32:32-p271:32:32-p272:64:64-i64:64-f80:128-n8:16:32:64-S128"
target triple = "x86_64-pc-linux-gnu"

@.str = private unnamed_addr constant [4 x i8] c"%lf\00", align 1
@.str.1 = private unnamed_addr constant [2 x i8] c"\0A\00", align 1
@.str.2 = private unnamed_addr constant [6 x i8] c"error\00", align 1
@.str.3 = private unnamed_addr constant [4 x i8] c"yes\00", align 1
@.str.4 = private unnamed_addr constant [3 x i8] c"no\00", align 1

; Function Attrs: nounwind sspstrong uwtable
define dso_local i32 @main() local_unnamed_addr #0 {
  %1 = alloca double, align 8
  %2 = alloca [1000 x i8], align 16
  %3 = alloca [1000 x i8], align 16
  %4 = bitcast double* %1 to i8*
  call void @llvm.lifetime.start.p0i8(i64 8, i8* nonnull %4) #6
  %5 = getelementptr inbounds [1000 x i8], [1000 x i8]* %2, i64 0, i64 0
  call void @llvm.lifetime.start.p0i8(i64 1000, i8* nonnull %5) #6
  call void @llvm.memset.p0i8.i64(i8* noundef nonnull align 16 dereferenceable(1000) %5, i8 0, i64 1000, i1 false)
  %6 = getelementptr inbounds [1000 x i8], [1000 x i8]* %3, i64 0, i64 0
  call void @llvm.lifetime.start.p0i8(i64 1000, i8* nonnull %6) #6
  call void @llvm.memset.p0i8.i64(i8* noundef nonnull align 16 dereferenceable(1000) %6, i8 0, i64 1000, i1 false)
  %7 = call i32 (i8*, ...) @__isoc99_scanf(i8* getelementptr inbounds ([4 x i8], [4 x i8]* @.str, i64 0, i64 0), double* nonnull %1)
  %8 = call i32 (i8*, ...) @__isoc99_scanf(i8* getelementptr inbounds ([2 x i8], [2 x i8]* @.str.1, i64 0, i64 0))
  %9 = call i32 (i8*, ...) bitcast (i32 (...)* @gets to i32 (i8*, ...)*)(i8* nonnull %5) #6
  %10 = call i32 (i8*, ...) bitcast (i32 (...)* @gets to i32 (i8*, ...)*)(i8* nonnull %6) #6
  %11 = call i64 @strlen(i8* noundef nonnull %5) #7
  %12 = trunc i64 %11 to i32
  %13 = icmp sgt i32 %12, 0
  br i1 %13, label %14, label %32

14:                                               ; preds = %0
  %15 = and i64 %11, 4294967295
  br label %16

16:                                               ; preds = %14, %24
  %17 = phi i64 [ 0, %14 ], [ %28, %24 ]
  %18 = phi i32 [ 0, %14 ], [ %27, %24 ]
  %19 = getelementptr inbounds [1000 x i8], [1000 x i8]* %2, i64 0, i64 %17
  %20 = load i8, i8* %19, align 1, !tbaa !5
  switch i8 %20, label %39 [
    i8 65, label %21
    i8 71, label %21
    i8 84, label %21
    i8 67, label %21
  ]

21:                                               ; preds = %16, %16, %16, %16
  %22 = getelementptr inbounds [1000 x i8], [1000 x i8]* %3, i64 0, i64 %17
  %23 = load i8, i8* %22, align 1, !tbaa !5
  switch i8 %23, label %39 [
    i8 65, label %24
    i8 71, label %24
    i8 84, label %24
    i8 67, label %24
  ]

24:                                               ; preds = %21, %21, %21, %21
  %25 = icmp eq i8 %20, %23
  %26 = zext i1 %25 to i32
  %27 = add nuw nsw i32 %18, %26
  %28 = add nuw nsw i64 %17, 1
  %29 = icmp eq i64 %28, %15
  br i1 %29, label %30, label %16, !llvm.loop !8

30:                                               ; preds = %24
  %31 = sitofp i32 %27 to double
  br label %32

32:                                               ; preds = %30, %0
  %33 = phi double [ 0.000000e+00, %0 ], [ %31, %30 ]
  %34 = sitofp i32 %12 to double
  %35 = fdiv double %33, %34
  %36 = load double, double* %1, align 8, !tbaa !10
  %37 = fcmp ogt double %35, %36
  %38 = select i1 %37, i8* getelementptr inbounds ([4 x i8], [4 x i8]* @.str.3, i64 0, i64 0), i8* getelementptr inbounds ([3 x i8], [3 x i8]* @.str.4, i64 0, i64 0)
  br label %39

39:                                               ; preds = %21, %16, %32
  %40 = phi i8* [ %38, %32 ], [ getelementptr inbounds ([6 x i8], [6 x i8]* @.str.2, i64 0, i64 0), %16 ], [ getelementptr inbounds ([6 x i8], [6 x i8]* @.str.2, i64 0, i64 0), %21 ]
  %41 = call i32 (i8*, ...) @printf(i8* nonnull dereferenceable(1) %40)
  call void @llvm.lifetime.end.p0i8(i64 1000, i8* nonnull %6) #6
  call void @llvm.lifetime.end.p0i8(i64 1000, i8* nonnull %5) #6
  call void @llvm.lifetime.end.p0i8(i64 8, i8* nonnull %4) #6
  ret i32 0
}

; Function Attrs: argmemonly mustprogress nofree nosync nounwind willreturn
declare void @llvm.lifetime.start.p0i8(i64 immarg, i8* nocapture) #1

; Function Attrs: argmemonly mustprogress nofree nounwind willreturn writeonly
declare void @llvm.memset.p0i8.i64(i8* nocapture writeonly, i8, i64, i1 immarg) #2

; Function Attrs: nofree nounwind
declare noundef i32 @__isoc99_scanf(i8* nocapture noundef readonly, ...) local_unnamed_addr #3

declare i32 @gets(...) local_unnamed_addr #4

; Function Attrs: argmemonly mustprogress nofree nounwind readonly willreturn
declare i64 @strlen(i8* nocapture) local_unnamed_addr #5

; Function Attrs: nofree nounwind
declare noundef i32 @printf(i8* nocapture noundef readonly, ...) local_unnamed_addr #3

; Function Attrs: argmemonly mustprogress nofree nosync nounwind willreturn
declare void @llvm.lifetime.end.p0i8(i64 immarg, i8* nocapture) #1


!llvm.module.flags = !{!0, !1, !2, !3}
!llvm.ident = !{!4}

!0 = !{i32 1, !"wchar_size", i32 4}
!1 = !{i32 7, !"PIC Level", i32 2}
!2 = !{i32 7, !"PIE Level", i32 2}
!3 = !{i32 7, !"uwtable", i32 1}
!4 = !{!"clang version 13.0.0"}
!5 = !{!6, !6, i64 0}
!6 = !{!"omnipotent char", !7, i64 0}
!7 = !{!"Simple C/C++ TBAA"}
!8 = distinct !{!8, !9}
!9 = !{!"llvm.loop.mustprogress"}
!10 = !{!11, !11, i64 0}
!11 = !{!"double", !6, i64 0}
